target datalayout = "e-m:e-p270:32:32-p271:32:32-p272:64:64-i64:64-i128:128-f80:128-n8:16:32:64-S128"
target triple = "x86_64-pc-linux-gnu"

%"class.google::protobuf::io::CodedOutputStream" = type { %"class.google::protobuf::io::EpsCopyOutputStream", ptr, i64 }
%"class.google::protobuf::io::EpsCopyOutputStream" = type <{ ptr, ptr, [32 x i8], ptr, i8, i8, i8, [5 x i8] }>

; Function Attrs: mustprogress uwtable
define linkonce_odr noundef ptr @_ZN6google8protobuf2io19EpsCopyOutputStream8WriteRawEPKviPh(ptr noundef nonnull align 8 dereferenceable(59) %0, ptr noundef %1, i32 noundef %2, ptr noundef %3) #4 comdat align 2 {
  %5 = alloca ptr, align 8
  %6 = alloca ptr, align 8
  %7 = alloca ptr, align 8
  %8 = alloca i32, align 4
  %9 = alloca ptr, align 8
  store ptr %0, ptr %6, align 8
  store ptr %1, ptr %7, align 8
  store i32 %2, ptr %8, align 4
  store ptr %3, ptr %9, align 8
  %10 = load ptr, ptr %6, align 8
  %11 = getelementptr inbounds %"class.google::protobuf::io::EpsCopyOutputStream", ptr %10, i32 0, i32 0
  %12 = load ptr, ptr %11, align 8
  %13 = load ptr, ptr %9, align 8
  %14 = ptrtoint ptr %12 to i64
  %15 = ptrtoint ptr %13 to i64
  %16 = sub i64 %14, %15
  %17 = load i32, ptr %8, align 4
  %18 = sext i32 %17 to i64
  %19 = icmp slt i64 %16, %18
  br i1 %19, label %20, label %25

20:                                               ; preds = %4
  %21 = load ptr, ptr %7, align 8
  %22 = load i32, ptr %8, align 4
  %23 = load ptr, ptr %9, align 8
  %24 = call noundef ptr @_ZN6google8protobuf2io19EpsCopyOutputStream16WriteRawFallbackEPKviPh(ptr noundef nonnull align 8 dereferenceable(59) %10, ptr noundef %21, i32 noundef %22, ptr noundef %23)
  store ptr %24, ptr %5, align 8
  br label %34

25:                                               ; preds = %4
  %26 = load ptr, ptr %9, align 8
  %27 = load ptr, ptr %7, align 8
  %28 = load i32, ptr %8, align 4
  %29 = sext i32 %28 to i64
  call void @llvm.memcpy.p0.p0.i64(ptr align 1 %26, ptr align 1 %27, i64 %29, i1 false)
  %30 = load ptr, ptr %9, align 8
  %31 = load i32, ptr %8, align 4
  %32 = sext i32 %31 to i64
  %33 = getelementptr inbounds i8, ptr %30, i64 %32
  store ptr %33, ptr %5, align 8
  br label %34

34:                                               ; preds = %25, %20
  %35 = load ptr, ptr %5, align 8
  ret ptr %35
}

; Function Attrs: mustprogress uwtable
define linkonce_odr void @_ZN6google8protobuf2io17CodedOutputStream8WriteRawEPKvi(ptr noundef nonnull align 8 dereferenceable(80) %0, ptr noundef %1, i32 noundef %2) #4 comdat align 2 {
  %4 = alloca ptr, align 8
  %5 = alloca ptr, align 8
  %6 = alloca i32, align 4
  store ptr %0, ptr %4, align 8
  store ptr %1, ptr %5, align 8
  store i32 %2, ptr %6, align 4
  %7 = load ptr, ptr %4, align 8
  %8 = getelementptr inbounds %"class.google::protobuf::io::CodedOutputStream", ptr %7, i32 0, i32 0
  %9 = load ptr, ptr %5, align 8
  %10 = load i32, ptr %6, align 4
  %11 = getelementptr inbounds %"class.google::protobuf::io::CodedOutputStream", ptr %7, i32 0, i32 1
  %12 = load ptr, ptr %11, align 8
  %13 = call noundef ptr @_ZN6google8protobuf2io19EpsCopyOutputStream8WriteRawEPKviPh(ptr noundef nonnull align 8 dereferenceable(59) %8, ptr noundef %9, i32 noundef %10, ptr noundef %12)
  %14 = getelementptr inbounds %"class.google::protobuf::io::CodedOutputStream", ptr %7, i32 0, i32 1
  store ptr %13, ptr %14, align 8
  ret void
}

; Function Attrs: mustprogress uwtable
define internal void @_ZN6google8protobuf8internalL10WriteArrayIlEEvPKT_iPNS0_2io17CodedOutputStreamE(ptr noundef %0, i32 noundef %1, ptr noundef %2) #4 {
  %4 = alloca ptr, align 8
  %5 = alloca i32, align 4
  %6 = alloca ptr, align 8
  store ptr %0, ptr %4, align 8
  store i32 %1, ptr %5, align 4
  store ptr %2, ptr %6, align 8
  %7 = load ptr, ptr %6, align 8
  %8 = load ptr, ptr %4, align 8
  %9 = load i32, ptr %5, align 4
  %10 = sext i32 %9 to i64
  %11 = mul i64 %10, 8
  %12 = trunc i64 %11 to i32
  call void @_ZN6google8protobuf2io17CodedOutputStream8WriteRawEPKvi(ptr noundef nonnull align 8 dereferenceable(80) %7, ptr noundef %8, i32 noundef %12)
  ret void
}

; Function Attrs: mustprogress uwtable
define void @_ZN6google8protobuf8internal14WireFormatLite18WriteSFixed64ArrayEPKliPNS0_2io17CodedOutputStreamE(ptr noundef %0, i32 noundef %1, ptr noundef %2) #4 align 2 {
  %4 = alloca ptr, align 8
  %5 = alloca i32, align 4
  %6 = alloca ptr, align 8
  store ptr %0, ptr %4, align 8
  store i32 %1, ptr %5, align 4
  store ptr %2, ptr %6, align 8
  %7 = load ptr, ptr %4, align 8
  %8 = load i32, ptr %5, align 4
  %9 = load ptr, ptr %6, align 8
  call void @_ZN6google8protobuf8internalL10WriteArrayIlEEvPKT_iPNS0_2io17CodedOutputStreamE(ptr noundef %7, i32 noundef %8, ptr noundef %9)
  ret void
}